; Function Attrs: nounwind uwtable
define void @php_json_parser_init(ptr noundef %0, ptr noundef %1, ptr noundef %2, i64 noundef %3, i32 noundef %4, i32 noundef %5) local_unnamed_addr #0 {
  tail call void @llvm.memset.p0.i64(ptr noundef nonnull align 8 dereferenceable(176) %0, i8 0, i64 176, i1 false)
  tail call void @php_json_scanner_init(ptr noundef %0, ptr noundef %2, i64 noundef %3, i32 noundef %4) #12
  %7 = getelementptr inbounds i8, ptr %0, i64 104
  store i32 1, ptr %7, align 8
  %8 = getelementptr inbounds i8, ptr %0, i64 108
  store i32 %5, ptr %8, align 4
  %9 = getelementptr inbounds i8, ptr %0, i64 96
  store ptr %1, ptr %9, align 8
  %10 = getelementptr inbounds i8, ptr %0, i64 112
  tail call void @llvm.memcpy.p0.p0.i64(ptr noundef nonnull align 8 dereferenceable(64) %10, ptr noundef nonnull align 8 dereferenceable(64) @default_parser_methods, i64 64, i1 false)
  ret void
}